target datalayout = "e-m:e-p270:32:32-p271:32:32-p272:64:64-i64:64-i128:128-f80:128-n8:16:32:64-S128"
target triple = "x86_64-pc-linux-gnu"

%"class.std::basic_ostream" = type { ptr, %"class.std::basic_ios" }
%"class.std::basic_ios" = type { %"class.std::ios_base", ptr, i8, i8, ptr, ptr, ptr, ptr }
%"class.std::ios_base" = type { ptr, i64, i64, i32, i32, i32, ptr, %"struct.std::ios_base::_Words", [8 x %"struct.std::ios_base::_Words"], i32, ptr, %"class.std::locale" }
%"struct.std::ios_base::_Words" = type { ptr, i64 }
%"class.std::locale" = type { ptr }
%class.cmXMLParser = type { ptr, i32, ptr, ptr, ptr }

@_ZSt4cerr = external global %"class.std::basic_ostream", align 8
@.str.1 = private unnamed_addr constant [23 x i8] c"Parser not initialized\00", align 1
@.str.2 = private unnamed_addr constant [1 x i8] zeroinitializer, align 1

; Function Attrs: mustprogress uwtable
define dso_local noundef i32 @_ZN11cmXMLParser13CleanupParserEv(ptr noundef nonnull align 8 dereferenceable(40) %0) unnamed_addr #7 align 2 {
  %2 = alloca i32, align 4
  %3 = alloca ptr, align 8
  %4 = alloca i32, align 4
  store ptr %0, ptr %3, align 8
  %5 = load ptr, ptr %3, align 8
  %6 = getelementptr inbounds %class.cmXMLParser, ptr %5, i32 0, i32 4
  %7 = load ptr, ptr %6, align 8
  %8 = icmp ne ptr %7, null
  br i1 %8, label %13, label %9

9:                                                ; preds = %1
  %10 = call noundef nonnull align 8 dereferenceable(8) ptr @_ZStlsISt11char_traitsIcEERSt13basic_ostreamIcT_ES5_PKc(ptr noundef nonnull align 8 dereferenceable(8) @_ZSt4cerr, ptr noundef @.str.1)
  %11 = call noundef nonnull align 8 dereferenceable(8) ptr @_ZNSolsEPFRSoS_E(ptr noundef nonnull align 8 dereferenceable(8) %10, ptr noundef @_ZSt4endlIcSt11char_traitsIcEERSt13basic_ostreamIT_T0_ES6_)
  %12 = getelementptr inbounds %class.cmXMLParser, ptr %5, i32 0, i32 1
  store i32 1, ptr %12, align 8
  store i32 0, ptr %2, align 4
  br label %36

13:                                               ; preds = %1
  %14 = getelementptr inbounds %class.cmXMLParser, ptr %5, i32 0, i32 1
  %15 = load i32, ptr %14, align 8
  %16 = icmp ne i32 %15, 0
  %17 = xor i1 %16, true
  %18 = zext i1 %17 to i32
  store i32 %18, ptr %4, align 4
  %19 = load i32, ptr %4, align 4
  %20 = icmp ne i32 %19, 0
  br i1 %20, label %21, label %31

21:                                               ; preds = %13
  %22 = getelementptr inbounds %class.cmXMLParser, ptr %5, i32 0, i32 4
  %23 = load ptr, ptr %22, align 8
  %24 = call i32 @XML_Parse(ptr noundef %23, ptr noundef @.str.2, i32 noundef 0, i32 noundef 1)
  %25 = icmp ne i32 %24, 0
  br i1 %25, label %30, label %26

26:                                               ; preds = %21
  %27 = load ptr, ptr %5, align 8
  %28 = getelementptr inbounds ptr, ptr %27, i64 11
  %29 = load ptr, ptr %28, align 8
  call void %29(ptr noundef nonnull align 8 dereferenceable(40) %5)
  store i32 0, ptr %4, align 4
  br label %30

30:                                               ; preds = %26, %21
  br label %31

31:                                               ; preds = %30, %13
  %32 = getelementptr inbounds %class.cmXMLParser, ptr %5, i32 0, i32 4
  %33 = load ptr, ptr %32, align 8
  call void @XML_ParserFree(ptr noundef %33)
  %34 = getelementptr inbounds %class.cmXMLParser, ptr %5, i32 0, i32 4
  store ptr null, ptr %34, align 8
  %35 = load i32, ptr %4, align 4
  store i32 %35, ptr %2, align 4
  br label %36

36:                                               ; preds = %31, %9
  %37 = load i32, ptr %2, align 4
  ret i32 %37
}