; Function Attrs: mustprogress uwtable
define dso_local noundef i32 @_ZN11cmXMLParser13CleanupParserEv(ptr noundef nonnull align 8 dereferenceable(40) %0) unnamed_addr #7 align 2 {
  %2 = getelementptr inbounds i8, ptr %0, i64 32
  %3 = load ptr, ptr %2, align 8
  %.not = icmp eq ptr %3, null
  br i1 %.not, label %4, label %8

4:                                                ; preds = %1
  %5 = tail call noundef nonnull align 8 dereferenceable(8) ptr @_ZStlsISt11char_traitsIcEERSt13basic_ostreamIcT_ES5_PKc(ptr noundef nonnull align 8 dereferenceable(8) @_ZSt4cerr, ptr noundef nonnull @.str.1)
  %6 = tail call noundef nonnull align 8 dereferenceable(8) ptr @_ZNSolsEPFRSoS_E(ptr noundef nonnull align 8 dereferenceable(8) %5, ptr noundef nonnull @_ZSt4endlIcSt11char_traitsIcEERSt13basic_ostreamIT_T0_ES6_)
  %7 = getelementptr inbounds i8, ptr %0, i64 8
  store i32 1, ptr %7, align 8
  br label %19

8:                                                ; preds = %1
  %9 = getelementptr inbounds i8, ptr %0, i64 8
  %10 = load i32, ptr %9, align 8
  %.not5 = icmp eq i32 %10, 0
  br i1 %.not5, label %11, label %17

11:                                               ; preds = %8
  %12 = tail call i32 @XML_Parse(ptr noundef nonnull %3, ptr noundef nonnull @.str.2, i32 noundef 0, i32 noundef 1)
  %.not6 = icmp eq i32 %12, 0
  br i1 %.not6, label %13, label %17

13:                                               ; preds = %11
  %14 = load ptr, ptr %0, align 8
  %15 = getelementptr inbounds i8, ptr %14, i64 88
  %16 = load ptr, ptr %15, align 8
  tail call void %16(ptr noundef nonnull align 8 dereferenceable(40) %0)
  br label %17

17:                                               ; preds = %11, %13, %8
  %.0.shrunk = phi i32 [ 1, %11 ], [ 0, %13 ], [ 0, %8 ]
  %18 = load ptr, ptr %2, align 8
  tail call void @XML_ParserFree(ptr noundef %18)
  store ptr null, ptr %2, align 8
  br label %19

19:                                               ; preds = %17, %4
  %.03 = phi i32 [ %.0.shrunk, %17 ], [ 0, %4 ]
  ret i32 %.03
}